target datalayout = "e-m:e-p270:32:32-p271:32:32-p272:64:64-i64:64-i128:128-f80:128-n8:16:32:64-S128"
target triple = "x86_64-unknown-linux-gnu"

%"struct.std::pair" = type { %"class.QuantLib::Date", %"class.QuantLib::Date" }
%"class.QuantLib::Date" = type { i64 }
%"class.QuantLib::Period" = type { i32, i32 }

; Function Attrs: mustprogress nounwind uwtable
define linkonce_odr noundef i32 @_ZNK8QuantLib6Period5unitsEv(ptr noundef nonnull align 4 dereferenceable(8) %this) #4 comdat align 2 {
entry:
  %this.addr = alloca ptr, align 8
  store ptr %this, ptr %this.addr, align 8, !tbaa !3
  %this1 = load ptr, ptr %this.addr, align 8
  %units_ = getelementptr inbounds nuw %"class.QuantLib::Period", ptr %this1, i32 0, i32 1
  %0 = load i32, ptr %units_, align 4, !tbaa !25
  ret i32 %0
}

; Function Attrs: mustprogress nounwind uwtable
define linkonce_odr noundef i32 @_ZNK8QuantLib6Period6lengthEv(ptr noundef nonnull align 4 dereferenceable(8) %this) #4 comdat align 2 {
entry:
  %this.addr = alloca ptr, align 8
  store ptr %this, ptr %this.addr, align 8, !tbaa !3
  %this1 = load ptr, ptr %this.addr, align 8
  %length_ = getelementptr inbounds nuw %"class.QuantLib::Period", ptr %this1, i32 0, i32 0
  %0 = load i32, ptr %length_, align 4, !tbaa !23
  ret i32 %0
}

; Function Attrs: inlinehint mustprogress uwtable
define linkonce_odr i64 @_ZNK8QuantLib4DatemiERKNS_6PeriodE(ptr noundef nonnull align 8 dereferenceable(8) %this, ptr noundef nonnull align 4 dereferenceable(8) %p) #7 comdat align 2 {
entry:
  %retval = alloca %"class.QuantLib::Date", align 8
  %this.addr = alloca ptr, align 8
  %p.addr = alloca ptr, align 8
  store ptr %this, ptr %this.addr, align 8, !tbaa !3
  store ptr %p, ptr %p.addr, align 8, !tbaa !3
  %this1 = load ptr, ptr %this.addr, align 8
  %0 = load ptr, ptr %p.addr, align 8, !tbaa !3
  %call = call noundef i32 @_ZNK8QuantLib6Period6lengthEv(ptr noundef nonnull align 4 dereferenceable(8) %0)
  %sub = sub nsw i32 0, %call
  %1 = load ptr, ptr %p.addr, align 8, !tbaa !3
  %call2 = call noundef i32 @_ZNK8QuantLib6Period5unitsEv(ptr noundef nonnull align 4 dereferenceable(8) %1)
  %call3 = call i64 @_ZN8QuantLib4Date7advanceERKS0_iNS_8TimeUnitE(ptr noundef nonnull align 8 dereferenceable(8) %this1, i32 noundef %sub, i32 noundef %call2)
  %coerce.dive = getelementptr inbounds nuw %"class.QuantLib::Date", ptr %retval, i32 0, i32 0
  store i64 %call3, ptr %coerce.dive, align 8
  %coerce.dive4 = getelementptr inbounds nuw %"class.QuantLib::Date", ptr %retval, i32 0, i32 0
  %2 = load i64, ptr %coerce.dive4, align 8
  ret i64 %2
}

; Function Attrs: mustprogress nounwind uwtable
define linkonce_odr void @_ZN8QuantLib6PeriodC2EiNS_8TimeUnitE(ptr noundef nonnull align 4 dereferenceable(8) %this, i32 noundef %n, i32 noundef %units) unnamed_addr #4 comdat align 2 {
entry:
  %this.addr = alloca ptr, align 8
  %n.addr = alloca i32, align 4
  %units.addr = alloca i32, align 4
  store ptr %this, ptr %this.addr, align 8, !tbaa !3
  store i32 %n, ptr %n.addr, align 4, !tbaa !19
  store i32 %units, ptr %units.addr, align 4, !tbaa !21
  %this1 = load ptr, ptr %this.addr, align 8
  %length_ = getelementptr inbounds nuw %"class.QuantLib::Period", ptr %this1, i32 0, i32 0
  %0 = load i32, ptr %n.addr, align 4, !tbaa !19
  store i32 %0, ptr %length_, align 4, !tbaa !23
  %units_ = getelementptr inbounds nuw %"class.QuantLib::Period", ptr %this1, i32 0, i32 1
  %1 = load i32, ptr %units.addr, align 4, !tbaa !21
  store i32 %1, ptr %units_, align 4, !tbaa !25
  ret void
}

; Function Attrs: mustprogress uwtable
define noundef double @_ZNK8QuantLib30MultiplicativePriceSeasonality21seasonalityCorrectionEdRKNS_4DateERKNS_10DayCounterES3_b(ptr noundef nonnull align 8 dereferenceable(48) %this, double noundef %rate, ptr noundef nonnull align 8 dereferenceable(8) %atDate, ptr noundef nonnull align 8 dereferenceable(16) %dc, ptr noundef nonnull align 8 dereferenceable(8) %curveBaseDate, i1 noundef zeroext %isZeroRate) unnamed_addr #6 align 2 {
entry:
  %this.addr = alloca ptr, align 8
  %rate.addr = alloca double, align 8
  %atDate.addr = alloca ptr, align 8
  %dc.addr = alloca ptr, align 8
  %curveBaseDate.addr = alloca ptr, align 8
  %isZeroRate.addr = alloca i8, align 1
  %factorAt = alloca double, align 8
  %f = alloca double, align 8
  %factorBase = alloca double, align 8
  %seasonalityAt = alloca double, align 8
  %p = alloca %"struct.std::pair", align 8
  %timeFromCurveBase = alloca double, align 8
  %ref.tmp = alloca %"class.QuantLib::Date", align 8
  %ref.tmp9 = alloca %"class.QuantLib::Date", align 8
  %factor1Ybefore = alloca double, align 8
  %ref.tmp13 = alloca %"class.QuantLib::Date", align 8
  %ref.tmp14 = alloca %"class.QuantLib::Period", align 4
  store ptr %this, ptr %this.addr, align 8, !tbaa !3
  store double %rate, ptr %rate.addr, align 8, !tbaa !15
  store ptr %atDate, ptr %atDate.addr, align 8, !tbaa !3
  store ptr %dc, ptr %dc.addr, align 8, !tbaa !3
  store ptr %curveBaseDate, ptr %curveBaseDate.addr, align 8, !tbaa !3
  %storedv = zext i1 %isZeroRate to i8
  store i8 %storedv, ptr %isZeroRate.addr, align 1, !tbaa !36
  %this1 = load ptr, ptr %this.addr, align 8
  call void @llvm.lifetime.start.p0(i64 8, ptr %factorAt) #17
  %0 = load ptr, ptr %atDate.addr, align 8, !tbaa !3
  %vtable = load ptr, ptr %this1, align 8, !tbaa !7
  %vfn = getelementptr inbounds ptr, ptr %vtable, i64 9
  %1 = load ptr, ptr %vfn, align 8
  %call = call noundef double %1(ptr noundef nonnull align 8 dereferenceable(48) %this1, ptr noundef nonnull align 8 dereferenceable(8) %0)
  store double %call, ptr %factorAt, align 8, !tbaa !15
  call void @llvm.lifetime.start.p0(i64 8, ptr %f) #17
  %2 = load i8, ptr %isZeroRate.addr, align 1, !tbaa !36, !range !39, !noundef !40
  %loadedv = trunc i8 %2 to i1
  br i1 %loadedv, label %if.then, label %if.else

if.then:                                          ; preds = %entry
  call void @llvm.lifetime.start.p0(i64 8, ptr %factorBase) #17
  %3 = load ptr, ptr %curveBaseDate.addr, align 8, !tbaa !3
  %vtable2 = load ptr, ptr %this1, align 8, !tbaa !7
  %vfn3 = getelementptr inbounds ptr, ptr %vtable2, i64 9
  %4 = load ptr, ptr %vfn3, align 8
  %call4 = call noundef double %4(ptr noundef nonnull align 8 dereferenceable(48) %this1, ptr noundef nonnull align 8 dereferenceable(8) %3)
  store double %call4, ptr %factorBase, align 8, !tbaa !15
  call void @llvm.lifetime.start.p0(i64 8, ptr %seasonalityAt) #17
  %5 = load double, ptr %factorAt, align 8, !tbaa !15
  %6 = load double, ptr %factorBase, align 8, !tbaa !15
  %div = fdiv double %5, %6
  store double %div, ptr %seasonalityAt, align 8, !tbaa !15
  call void @llvm.lifetime.start.p0(i64 16, ptr %p) #17
  %7 = load ptr, ptr %atDate.addr, align 8, !tbaa !3
  %vtable5 = load ptr, ptr %this1, align 8, !tbaa !7
  %vfn6 = getelementptr inbounds ptr, ptr %vtable5, i64 7
  %8 = load ptr, ptr %vfn6, align 8
  %call7 = call noundef i32 %8(ptr noundef nonnull align 8 dereferenceable(48) %this1)
  %call8 = call { i64, i64 } @_ZN8QuantLib15inflationPeriodERKNS_4DateENS_9FrequencyE(ptr noundef nonnull align 8 dereferenceable(8) %7, i32 noundef %call7)
  %9 = getelementptr inbounds nuw { i64, i64 }, ptr %p, i32 0, i32 0
  %10 = extractvalue { i64, i64 } %call8, 0
  store i64 %10, ptr %9, align 8
  %11 = getelementptr inbounds nuw { i64, i64 }, ptr %p, i32 0, i32 1
  %12 = extractvalue { i64, i64 } %call8, 1
  store i64 %12, ptr %11, align 8
  call void @llvm.lifetime.start.p0(i64 8, ptr %timeFromCurveBase) #17
  %13 = load ptr, ptr %dc.addr, align 8, !tbaa !3
  %14 = load ptr, ptr %curveBaseDate.addr, align 8, !tbaa !3
  %first = getelementptr inbounds nuw %"struct.std::pair", ptr %p, i32 0, i32 0
  call void @llvm.lifetime.start.p0(i64 8, ptr %ref.tmp) #17
  call void @_ZN8QuantLib4DateC1Ev(ptr noundef nonnull align 8 dereferenceable(8) %ref.tmp)
  call void @llvm.lifetime.start.p0(i64 8, ptr %ref.tmp9) #17
  call void @_ZN8QuantLib4DateC1Ev(ptr noundef nonnull align 8 dereferenceable(8) %ref.tmp9)
  %call10 = call noundef double @_ZNK8QuantLib10DayCounter12yearFractionERKNS_4DateES3_S3_S3_(ptr noundef nonnull align 8 dereferenceable(16) %13, ptr noundef nonnull align 8 dereferenceable(8) %14, ptr noundef nonnull align 8 dereferenceable(8) %first, ptr noundef nonnull align 8 dereferenceable(8) %ref.tmp, ptr noundef nonnull align 8 dereferenceable(8) %ref.tmp9)
  call void @llvm.lifetime.end.p0(i64 8, ptr %ref.tmp9) #17
  call void @llvm.lifetime.end.p0(i64 8, ptr %ref.tmp) #17
  store double %call10, ptr %timeFromCurveBase, align 8, !tbaa !15
  %15 = load double, ptr %seasonalityAt, align 8, !tbaa !15
  %16 = load double, ptr %timeFromCurveBase, align 8, !tbaa !15
  %div11 = fdiv double 1.000000e+00, %16
  %call12 = call double @pow(double noundef %15, double noundef %div11) #17, !tbaa !19
  store double %call12, ptr %f, align 8, !tbaa !15
  call void @llvm.lifetime.end.p0(i64 8, ptr %timeFromCurveBase) #17
  call void @llvm.lifetime.end.p0(i64 16, ptr %p) #17
  call void @llvm.lifetime.end.p0(i64 8, ptr %seasonalityAt) #17
  call void @llvm.lifetime.end.p0(i64 8, ptr %factorBase) #17
  br label %if.end

if.else:                                          ; preds = %entry
  call void @llvm.lifetime.start.p0(i64 8, ptr %factor1Ybefore) #17
  call void @llvm.lifetime.start.p0(i64 8, ptr %ref.tmp13) #17
  %17 = load ptr, ptr %atDate.addr, align 8, !tbaa !3
  call void @llvm.lifetime.start.p0(i64 8, ptr %ref.tmp14) #17
  call void @_ZN8QuantLib6PeriodC2EiNS_8TimeUnitE(ptr noundef nonnull align 4 dereferenceable(8) %ref.tmp14, i32 noundef 1, i32 noundef 3)
  %call15 = call i64 @_ZNK8QuantLib4DatemiERKNS_6PeriodE(ptr noundef nonnull align 8 dereferenceable(8) %17, ptr noundef nonnull align 4 dereferenceable(8) %ref.tmp14)
  %coerce.dive = getelementptr inbounds nuw %"class.QuantLib::Date", ptr %ref.tmp13, i32 0, i32 0
  store i64 %call15, ptr %coerce.dive, align 8
  %vtable16 = load ptr, ptr %this1, align 8, !tbaa !7
  %vfn17 = getelementptr inbounds ptr, ptr %vtable16, i64 9
  %18 = load ptr, ptr %vfn17, align 8
  %call18 = call noundef double %18(ptr noundef nonnull align 8 dereferenceable(48) %this1, ptr noundef nonnull align 8 dereferenceable(8) %ref.tmp13)
  call void @llvm.lifetime.end.p0(i64 8, ptr %ref.tmp14) #17
  call void @llvm.lifetime.end.p0(i64 8, ptr %ref.tmp13) #17
  store double %call18, ptr %factor1Ybefore, align 8, !tbaa !15
  %19 = load double, ptr %factorAt, align 8, !tbaa !15
  %20 = load double, ptr %factor1Ybefore, align 8, !tbaa !15
  %div19 = fdiv double %19, %20
  store double %div19, ptr %f, align 8, !tbaa !15
  call void @llvm.lifetime.end.p0(i64 8, ptr %factor1Ybefore) #17
  br label %if.end

if.end:                                           ; preds = %if.else, %if.then
  %21 = load double, ptr %rate.addr, align 8, !tbaa !15
  %add = fadd double %21, 1.000000e+00
  %22 = load double, ptr %f, align 8, !tbaa !15
  %23 = call double @llvm.fmuladd.f64(double %add, double %22, double -1.000000e+00)
  call void @llvm.lifetime.end.p0(i64 8, ptr %f) #17
  call void @llvm.lifetime.end.p0(i64 8, ptr %factorAt) #17
  ret double %23
}