; Function Attrs: mustprogress uwtable
define noundef double @_ZNK8QuantLib30MultiplicativePriceSeasonality21seasonalityCorrectionEdRKNS_4DateERKNS_10DayCounterES3_b(ptr noundef nonnull align 8 dereferenceable(48) %this, double noundef %rate, ptr noundef nonnull align 8 dereferenceable(8) %atDate, ptr noundef nonnull align 8 dereferenceable(16) %dc, ptr noundef nonnull align 8 dereferenceable(8) %curveBaseDate, i1 noundef zeroext %isZeroRate) unnamed_addr #6 align 2 {
entry:
  %p = alloca %"struct.std::pair", align 8
  %ref.tmp = alloca %"class.QuantLib::Date", align 8
  %ref.tmp9 = alloca %"class.QuantLib::Date", align 8
  %ref.tmp13 = alloca %"class.QuantLib::Date", align 8
  %vtable = load ptr, ptr %this, align 8, !tbaa !3
  %vfn = getelementptr inbounds i8, ptr %vtable, i64 72
  %0 = load ptr, ptr %vfn, align 8
  %call = tail call noundef double %0(ptr noundef nonnull align 8 dereferenceable(48) %this, ptr noundef nonnull align 8 dereferenceable(8) %atDate)
  br i1 %isZeroRate, label %if.then, label %if.else

if.then:                                          ; preds = %entry
  %vtable2 = load ptr, ptr %this, align 8, !tbaa !3
  %vfn3 = getelementptr inbounds i8, ptr %vtable2, i64 72
  %1 = load ptr, ptr %vfn3, align 8
  %call4 = tail call noundef double %1(ptr noundef nonnull align 8 dereferenceable(48) %this, ptr noundef nonnull align 8 dereferenceable(8) %curveBaseDate)
  %div = fdiv double %call, %call4
  call void @llvm.lifetime.start.p0(i64 16, ptr nonnull %p) #23
  %vtable5 = load ptr, ptr %this, align 8, !tbaa !3
  %vfn6 = getelementptr inbounds i8, ptr %vtable5, i64 56
  %2 = load ptr, ptr %vfn6, align 8
  %call7 = tail call noundef i32 %2(ptr noundef nonnull align 8 dereferenceable(48) %this)
  %call8 = tail call { i64, i64 } @_ZN8QuantLib15inflationPeriodERKNS_4DateENS_9FrequencyE(ptr noundef nonnull align 8 dereferenceable(8) %atDate, i32 noundef %call7)
  %3 = extractvalue { i64, i64 } %call8, 0
  store i64 %3, ptr %p, align 8
  %4 = getelementptr inbounds nuw i8, ptr %p, i64 8
  %5 = extractvalue { i64, i64 } %call8, 1
  store i64 %5, ptr %4, align 8
  call void @llvm.lifetime.start.p0(i64 8, ptr nonnull %ref.tmp) #23
  call void @_ZN8QuantLib4DateC1Ev(ptr noundef nonnull align 8 dereferenceable(8) %ref.tmp)
  call void @llvm.lifetime.start.p0(i64 8, ptr nonnull %ref.tmp9) #23
  call void @_ZN8QuantLib4DateC1Ev(ptr noundef nonnull align 8 dereferenceable(8) %ref.tmp9)
  %call10 = call noundef double @_ZNK8QuantLib10DayCounter12yearFractionERKNS_4DateES3_S3_S3_(ptr noundef nonnull align 8 dereferenceable(16) %dc, ptr noundef nonnull align 8 dereferenceable(8) %curveBaseDate, ptr noundef nonnull align 8 dereferenceable(8) %p, ptr noundef nonnull align 8 dereferenceable(8) %ref.tmp, ptr noundef nonnull align 8 dereferenceable(8) %ref.tmp9)
  call void @llvm.lifetime.end.p0(i64 8, ptr nonnull %ref.tmp9) #23
  call void @llvm.lifetime.end.p0(i64 8, ptr nonnull %ref.tmp) #23
  %div11 = fdiv double 1.000000e+00, %call10
  %call12 = call double @pow(double noundef %div, double noundef %div11) #23, !tbaa !45
  call void @llvm.lifetime.end.p0(i64 16, ptr nonnull %p) #23
  br label %if.end

if.else:                                          ; preds = %entry
  call void @llvm.lifetime.start.p0(i64 8, ptr nonnull %ref.tmp13) #23
  %call3.i = tail call i64 @_ZN8QuantLib4Date7advanceERKS0_iNS_8TimeUnitE(ptr noundef nonnull align 8 dereferenceable(8) %atDate, i32 noundef -1, i32 noundef 3)
  store i64 %call3.i, ptr %ref.tmp13, align 8
  %vtable16 = load ptr, ptr %this, align 8, !tbaa !3
  %vfn17 = getelementptr inbounds i8, ptr %vtable16, i64 72
  %6 = load ptr, ptr %vfn17, align 8
  %call18 = call noundef double %6(ptr noundef nonnull align 8 dereferenceable(48) %this, ptr noundef nonnull align 8 dereferenceable(8) %ref.tmp13)
  call void @llvm.lifetime.end.p0(i64 8, ptr nonnull %ref.tmp13) #23
  %div19 = fdiv double %call, %call18
  br label %if.end

if.end:                                           ; preds = %if.else, %if.then
  %f.0 = phi double [ %call12, %if.then ], [ %div19, %if.else ]
  %add = fadd double %rate, 1.000000e+00
  %7 = call double @llvm.fmuladd.f64(double %add, double %f.0, double -1.000000e+00)
  ret double %7
}